; ModuleID = 'source-C-CXX/51/4912.c'
source_filename = "source-C-CXX/51/4912.c"
target datalayout = "e-m:e-p270:32:32-p271:32:32-p272:64:64-i64:64-f80:128-n8:16:32:64-S128"
target triple = "x86_64-pc-linux-gnu"

@.str = private unnamed_addr constant [5 x i8] c"%d%d\00", align 1
@.str.1 = private unnamed_addr constant [3 x i8] c"%d\00", align 1
@a = dso_local global [105 x i32] zeroinitializer, align 16
@.str.2 = private unnamed_addr constant [4 x i8] c"%d \00", align 1

; Function Attrs: nofree nounwind sspstrong uwtable
define dso_local i32 @main() local_unnamed_addr #0 {
  %1 = alloca i32, align 4
  %2 = alloca i32, align 4
  %3 = bitcast i32* %1 to i8*
  call void @llvm.lifetime.start.p0i8(i64 4, i8* nonnull %3) #3
  %4 = bitcast i32* %2 to i8*
  call void @llvm.lifetime.start.p0i8(i64 4, i8* nonnull %4) #3
  %5 = call i32 (i8*, ...) @__isoc99_scanf(i8* getelementptr inbounds ([5 x i8], [5 x i8]* @.str, i64 0, i64 0), i32* nonnull %1, i32* nonnull %2)
  %6 = load i32, i32* %1, align 4, !tbaa !5
  %7 = icmp slt i32 %6, 1
  br i1 %7, label %16, label %8

8:                                                ; preds = %0, %8
  %9 = phi i64 [ %12, %8 ], [ 1, %0 ]
  %10 = getelementptr inbounds [105 x i32], [105 x i32]* @a, i64 0, i64 %9
  %11 = call i32 (i8*, ...) @__isoc99_scanf(i8* getelementptr inbounds ([3 x i8], [3 x i8]* @.str.1, i64 0, i64 0), i32* nonnull %10)
  %12 = add nuw nsw i64 %9, 1
  %13 = load i32, i32* %1, align 4, !tbaa !5
  %14 = sext i32 %13 to i64
  %15 = icmp slt i64 %9, %14
  br i1 %15, label %8, label %16, !llvm.loop !9

16:                                               ; preds = %8, %0
  %17 = phi i32 [ %6, %0 ], [ %13, %8 ]
  %18 = load i32, i32* %2, align 4, !tbaa !5
  %19 = icmp sgt i32 %18, 0
  br i1 %19, label %20, label %25

20:                                               ; preds = %16
  %21 = add i32 %17, 1
  %22 = sub i32 %21, %18
  %23 = zext i32 %18 to i64
  %24 = sext i32 %17 to i64
  br label %27

25:                                               ; preds = %46, %16
  %26 = icmp sgt i32 %17, 1
  br i1 %26, label %52, label %61

27:                                               ; preds = %20, %46
  %28 = phi i64 [ %23, %20 ], [ %49, %46 ]
  %29 = phi i32 [ %22, %20 ], [ %51, %46 ]
  %30 = sub nsw i64 %24, %28
  %31 = add nsw i64 %30, 1
  %32 = getelementptr inbounds [105 x i32], [105 x i32]* @a, i64 0, i64 %31
  %33 = load i32, i32* %32, align 4, !tbaa !5
  %34 = sub nuw nsw i64 %23, %28
  %35 = add nuw nsw i64 %34, 2
  %36 = icmp slt i64 %31, %35
  br i1 %36, label %46, label %37

37:                                               ; preds = %27
  %38 = sext i32 %29 to i64
  br label %39

39:                                               ; preds = %37, %39
  %40 = phi i64 [ %38, %37 ], [ %41, %39 ]
  %41 = add nsw i64 %40, -1
  %42 = getelementptr inbounds [105 x i32], [105 x i32]* @a, i64 0, i64 %41
  %43 = load i32, i32* %42, align 4, !tbaa !5
  %44 = getelementptr inbounds [105 x i32], [105 x i32]* @a, i64 0, i64 %40
  store i32 %43, i32* %44, align 4, !tbaa !5
  %45 = icmp sgt i64 %40, %35
  br i1 %45, label %39, label %46, !llvm.loop !11

46:                                               ; preds = %39, %27
  %47 = add nuw nsw i64 %34, 1
  %48 = getelementptr inbounds [105 x i32], [105 x i32]* @a, i64 0, i64 %47
  store i32 %33, i32* %48, align 4, !tbaa !5
  %49 = add nsw i64 %28, -1
  %50 = icmp sgt i64 %28, 1
  %51 = add i32 %29, 1
  br i1 %50, label %27, label %25, !llvm.loop !12

52:                                               ; preds = %25, %52
  %53 = phi i64 [ %57, %52 ], [ 1, %25 ]
  %54 = getelementptr inbounds [105 x i32], [105 x i32]* @a, i64 0, i64 %53
  %55 = load i32, i32* %54, align 4, !tbaa !5
  %56 = call i32 (i8*, ...) @printf(i8* nonnull dereferenceable(1) getelementptr inbounds ([4 x i8], [4 x i8]* @.str.2, i64 0, i64 0), i32 %55)
  %57 = add nuw nsw i64 %53, 1
  %58 = load i32, i32* %1, align 4, !tbaa !5
  %59 = sext i32 %58 to i64
  %60 = icmp slt i64 %57, %59
  br i1 %60, label %52, label %61, !llvm.loop !13

61:                                               ; preds = %52, %25
  %62 = phi i32 [ %17, %25 ], [ %58, %52 ]
  %63 = sext i32 %62 to i64
  %64 = getelementptr inbounds [105 x i32], [105 x i32]* @a, i64 0, i64 %63
  %65 = load i32, i32* %64, align 4, !tbaa !5
  %66 = call i32 (i8*, ...) @printf(i8* nonnull dereferenceable(1) getelementptr inbounds ([3 x i8], [3 x i8]* @.str.1, i64 0, i64 0), i32 %65)
  call void @llvm.lifetime.end.p0i8(i64 4, i8* nonnull %4) #3
  call void @llvm.lifetime.end.p0i8(i64 4, i8* nonnull %3) #3
  ret i32 0
}

; Function Attrs: argmemonly mustprogress nofree nosync nounwind willreturn
declare void @llvm.lifetime.start.p0i8(i64 immarg, i8* nocapture) #1

; Function Attrs: nofree nounwind
declare noundef i32 @__isoc99_scanf(i8* nocapture noundef readonly, ...) local_unnamed_addr #2

; Function Attrs: nofree nounwind
declare noundef i32 @printf(i8* nocapture noundef readonly, ...) local_unnamed_addr #2

; Function Attrs: argmemonly mustprogress nofree nosync nounwind willreturn
declare void @llvm.lifetime.end.p0i8(i64 immarg, i8* nocapture) #1


!llvm.module.flags = !{!0, !1, !2, !3}
!llvm.ident = !{!4}

!0 = !{i32 1, !"wchar_size", i32 4}
!1 = !{i32 7, !"PIC Level", i32 2}
!2 = !{i32 7, !"PIE Level", i32 2}
!3 = !{i32 7, !"uwtable", i32 1}
!4 = !{!"clang version 13.0.0"}
!5 = !{!6, !6, i64 0}
!6 = !{!"int", !7, i64 0}
!7 = !{!"omnipotent char", !8, i64 0}
!8 = !{!"Simple C/C++ TBAA"}
!9 = distinct !{!9, !10}
!10 = !{!"llvm.loop.mustprogress"}
!11 = distinct !{!11, !10}
!12 = distinct !{!12, !10}
!13 = distinct !{!13, !10}
